; Function Attrs: mustprogress nounwind uwtable
define void @_ZN5boost10test_tools18output_test_streamD2Ev(ptr noundef nonnull align 8 dereferenceable(120) %0, ptr nocapture noundef readonly %1) unnamed_addr #10 align 2 personality ptr @__gxx_personality_v0 {
  %3 = load ptr, ptr %1, align 8
  store ptr %3, ptr %0, align 8, !tbaa !3
  %4 = getelementptr inbounds i8, ptr %1, i64 40
  %5 = load ptr, ptr %4, align 8
  %6 = getelementptr i8, ptr %3, i64 -24
  %7 = load i64, ptr %6, align 8
  %8 = getelementptr inbounds i8, ptr %0, i64 %7
  store ptr %5, ptr %8, align 8, !tbaa !3
  %9 = getelementptr inbounds nuw i8, ptr %0, i64 112
  %10 = load ptr, ptr %9, align 8, !tbaa !130
  %11 = icmp eq ptr %10, null
  br i1 %11, label %23, label %12

12:                                               ; preds = %2
  %13 = getelementptr inbounds nuw i8, ptr %10, i64 536
  %14 = load ptr, ptr %13, align 8, !tbaa !20
  %15 = getelementptr inbounds nuw i8, ptr %10, i64 552
  %16 = icmp eq ptr %14, %15
  br i1 %16, label %_ZNKSt7__cxx1112basic_stringIcSt11char_traitsIcESaIcEE11_M_is_localEv.exit.thread.i.i.i, label %_ZNKSt7__cxx1112basic_stringIcSt11char_traitsIcESaIcEE11_M_is_localEv.exit.i.i.i

_ZNKSt7__cxx1112basic_stringIcSt11char_traitsIcESaIcEE11_M_is_localEv.exit.thread.i.i.i: ; preds = %12
  %17 = getelementptr inbounds nuw i8, ptr %10, i64 544
  %18 = load i64, ptr %17, align 8, !tbaa !22
  %19 = icmp ult i64 %18, 16
  tail call void @llvm.assume(i1 %19)
  br label %_ZN5boost10test_tools18output_test_stream4ImplD2Ev.exit

_ZNKSt7__cxx1112basic_stringIcSt11char_traitsIcESaIcEE11_M_is_localEv.exit.i.i.i: ; preds = %12
  %20 = load i64, ptr %15, align 8, !tbaa !9
  %21 = add i64 %20, 1
  tail call void @_ZdlPvm(ptr noundef %14, i64 noundef %21) #31
  br label %_ZN5boost10test_tools18output_test_stream4ImplD2Ev.exit

_ZN5boost10test_tools18output_test_stream4ImplD2Ev.exit: ; preds = %_ZNKSt7__cxx1112basic_stringIcSt11char_traitsIcESaIcEE11_M_is_localEv.exit.thread.i.i.i, %_ZNKSt7__cxx1112basic_stringIcSt11char_traitsIcESaIcEE11_M_is_localEv.exit.i.i.i
  tail call void @_ZNSt13basic_fstreamIcSt11char_traitsIcEED2Ev(ptr noundef nonnull align 8 dereferenceable(568) %10, ptr noundef nonnull @_ZTTSt13basic_fstreamIcSt11char_traitsIcEE) #30
  %22 = getelementptr inbounds i8, ptr %10, i64 264
  tail call void @_ZNSt8ios_baseD2Ev(ptr noundef nonnull align 8 dereferenceable(264) %22) #30
  tail call void @_ZdlPvm(ptr noundef nonnull %10, i64 noundef 568) #31
  br label %23

23:                                               ; preds = %_ZN5boost10test_tools18output_test_stream4ImplD2Ev.exit, %2
  %24 = getelementptr inbounds i8, ptr %1, i64 8
  %25 = load ptr, ptr %24, align 8
  store ptr %25, ptr %0, align 8, !tbaa !3
  %26 = getelementptr inbounds i8, ptr %1, i64 32
  %27 = load ptr, ptr %26, align 8
  %28 = getelementptr i8, ptr %25, i64 -24
  %29 = load i64, ptr %28, align 8
  %30 = getelementptr inbounds i8, ptr %0, i64 %29
  store ptr %27, ptr %30, align 8, !tbaa !3
  %31 = getelementptr inbounds nuw i8, ptr %0, i64 8
  store ptr getelementptr inbounds inrange(-16, 112) (i8, ptr @_ZTVNSt7__cxx1115basic_stringbufIcSt11char_traitsIcESaIcEEE, i64 16), ptr %31, align 8, !tbaa !3
  %32 = getelementptr inbounds nuw i8, ptr %0, i64 80
  %33 = load ptr, ptr %32, align 8, !tbaa !20
  %34 = getelementptr inbounds nuw i8, ptr %0, i64 96
  %35 = icmp eq ptr %33, %34
  br i1 %35, label %_ZNKSt7__cxx1112basic_stringIcSt11char_traitsIcESaIcEE11_M_is_localEv.exit.thread.i.i.i.i, label %_ZNKSt7__cxx1112basic_stringIcSt11char_traitsIcESaIcEE11_M_is_localEv.exit.i.i.i.i

_ZNKSt7__cxx1112basic_stringIcSt11char_traitsIcESaIcEE11_M_is_localEv.exit.thread.i.i.i.i: ; preds = %23
  %36 = getelementptr inbounds nuw i8, ptr %0, i64 88
  %37 = load i64, ptr %36, align 8, !tbaa !22
  %38 = icmp ult i64 %37, 16
  tail call void @llvm.assume(i1 %38)
  br label %_ZNSt7__cxx1119basic_ostringstreamIcSt11char_traitsIcESaIcEED2Ev.exit

_ZNKSt7__cxx1112basic_stringIcSt11char_traitsIcESaIcEE11_M_is_localEv.exit.i.i.i.i: ; preds = %23
  %39 = load i64, ptr %34, align 8, !tbaa !9
  %40 = add i64 %39, 1
  tail call void @_ZdlPvm(ptr noundef %33, i64 noundef %40) #31
  br label %_ZNSt7__cxx1119basic_ostringstreamIcSt11char_traitsIcESaIcEED2Ev.exit

_ZNSt7__cxx1119basic_ostringstreamIcSt11char_traitsIcESaIcEED2Ev.exit: ; preds = %_ZNKSt7__cxx1112basic_stringIcSt11char_traitsIcESaIcEE11_M_is_localEv.exit.thread.i.i.i.i, %_ZNKSt7__cxx1112basic_stringIcSt11char_traitsIcESaIcEE11_M_is_localEv.exit.i.i.i.i
  store ptr getelementptr inbounds inrange(-16, 112) (i8, ptr @_ZTVSt15basic_streambufIcSt11char_traitsIcEE, i64 16), ptr %31, align 8, !tbaa !3
  %41 = getelementptr inbounds nuw i8, ptr %0, i64 64
  tail call void @_ZNSt6localeD1Ev(ptr noundef nonnull align 8 dereferenceable(8) %41) #30
  ret void
}